(dp1
S'n02802426_12868'
p2
(lp3
(dp4
S'difficult'
p5
I0
sS'pose'
p6
S'Unspecified'
p7
sS'name'
p8
S'n02802426'
p9
sS'bbox'
p10
(lp11
I248
aI271
aI290
aI314
asS'truncated'
p12
I0
sasS'n02802426_7857'
p13
(lp14
(dp15
g5
I0
sg6
S'Unspecified'
p16
sg8
S'n02802426'
p17
sg10
(lp18
I146
aI239
aI221
aI312
asg12
I0
sasS'n02802426_1018'
p19
(lp20
(dp21
g5
I0
sg6
S'Unspecified'
p22
sg8
S'n02802426'
p23
sg10
(lp24
I259
aI253
aI325
aI318
asg12
I0
sasS'n02802426_1669'
p25
(lp26
(dp27
g5
I0
sg6
S'Unspecified'
p28
sg8
S'n02802426'
p29
sg10
(lp30
I0
aI0
aI139
aI135
asg12
I0
sasS'n02802426_1317'
p31
(lp32
(dp33
g5
I0
sg6
S'Unspecified'
p34
sg8
S'n02802426'
p35
sg10
(lp36
I160
aI72
aI200
aI117
asg12
I0
sasS'n02802426_2653'
p37
(lp38
(dp39
g5
I0
sg6
S'Unspecified'
p40
sg8
S'n02802426'
p41
sg10
(lp42
I88
aI90
aI271
aI270
asg12
I0
sasS'n02802426_5632'
p43
(lp44
(dp45
g5
I0
sg6
S'Unspecified'
p46
sg8
S'n02802426'
p47
sg10
(lp48
I0
aI0
aI290
aI298
asg12
I0
sasS'n02802426_4090'
p49
(lp50
(dp51
g5
I0
sg6
S'Unspecified'
p52
sg8
S'n02802426'
p53
sg10
(lp54
I193
aI87
aI246
aI141
asg12
I0
sa(dp55
g5
I0
sg6
S'Unspecified'
p56
sg8
S'n02802426'
p57
sg10
(lp58
I362
aI82
aI394
aI112
asg12
I0
sasS'n02802426_10404'
p59
(lp60
(dp61
g5
I0
sg6
S'Unspecified'
p62
sg8
S'n02802426'
p63
sg10
(lp64
I244
aI64
aI306
aI129
asg12
I0
sasS'n02802426_70'
p65
(lp66
(dp67
g5
I0
sg6
S'Unspecified'
p68
sg8
S'n02802426'
p69
sg10
(lp70
I160
aI334
aI210
aI383
asg12
I0
sasS'n02802426_13117'
p71
(lp72
(dp73
g5
I0
sg6
S'Unspecified'
p74
sg8
S'n02802426'
p75
sg10
(lp76
I188
aI215
aI242
aI268
asg12
I0
sasS'n02802426_12062'
p77
(lp78
(dp79
g5
I0
sg6
S'Unspecified'
p80
sg8
S'n02802426'
p81
sg10
(lp82
I1
aI0
aI278
aI279
asg12
I0
sasS'n02802426_9901'
p83
(lp84
(dp85
g5
I0
sg6
S'Unspecified'
p86
sg8
S'n02802426'
p87
sg10
(lp88
I66
aI243
aI134
aI312
asg12
I0
sasS'n02802426_5932'
p89
(lp90
(dp91
g5
I0
sg6
S'Unspecified'
p92
sg8
S'n02802426'
p93
sg10
(lp94
I234
aI24
aI420
aI163
asg12
I0
sasS'n02802426_4493'
p95
(lp96
(dp97
g5
I0
sg6
S'Unspecified'
p98
sg8
S'n02802426'
p99
sg10
(lp100
I110
aI105
aI145
aI138
asg12
I0
sasS'n02802426_4019'
p101
(lp102
(dp103
g5
I0
sg6
S'Unspecified'
p104
sg8
S'n02802426'
p105
sg10
(lp106
I205
aI61
aI254
aI113
asg12
I0
sasS'n02802426_765'
p107
(lp108
(dp109
g5
I0
sg6
S'Unspecified'
p110
sg8
S'n02802426'
p111
sg10
(lp112
I179
aI143
aI234
aI193
asg12
I0
sasS'n02802426_10258'
p113
(lp114
(dp115
g5
I0
sg6
S'Unspecified'
p116
sg8
S'n02802426'
p117
sg10
(lp118
I93
aI217
aI152
aI280
asg12
I0
sasS'n02802426_1413'
p119
(lp120
(dp121
g5
I0
sg6
S'Unspecified'
p122
sg8
S'n02802426'
p123
sg10
(lp124
I192
aI151
aI231
aI192
asg12
I0
sasS'n02802426_9684'
p125
(lp126
(dp127
g5
I0
sg6
S'Unspecified'
p128
sg8
S'n02802426'
p129
sg10
(lp130
I309
aI138
aI355
aI187
asg12
I0
sasS'n02802426_8911'
p131
(lp132
(dp133
g5
I0
sg6
S'Unspecified'
p134
sg8
S'n02802426'
p135
sg10
(lp136
I12
aI1
aI177
aI169
asg12
I0
sasS'n02802426_9041'
p137
(lp138
(dp139
g5
I0
sg6
S'Unspecified'
p140
sg8
S'n02802426'
p141
sg10
(lp142
I52
aI175
aI115
aI236
asg12
I0
sasS'n02802426_944'
p143
(lp144
(dp145
g5
I0
sg6
S'Unspecified'
p146
sg8
S'n02802426'
p147
sg10
(lp148
I235
aI67
aI257
aI88
asg12
I0
sasS'n02802426_4695'
p149
(lp150
(dp151
g5
I0
sg6
S'Unspecified'
p152
sg8
S'n02802426'
p153
sg10
(lp154
I3
aI6
aI218
aI222
asg12
I0
sasS'n02802426_5402'
p155
(lp156
(dp157
g5
I0
sg6
S'Unspecified'
p158
sg8
S'n02802426'
p159
sg10
(lp160
I44
aI147
aI144
aI241
asg12
I0
sasS'n02802426_11890'
p161
(lp162
(dp163
g5
I0
sg6
S'Unspecified'
p164
sg8
S'n02802426'
p165
sg10
(lp166
I0
aI0
aI199
aI199
asg12
I0
sasS'n02802426_3755'
p167
(lp168
(dp169
g5
I0
sg6
S'Unspecified'
p170
sg8
S'n02802426'
p171
sg10
(lp172
I98
aI96
aI136
aI135
asg12
I0
sasS'n02802426_7266'
p173
(lp174
(dp175
g5
I0
sg6
S'Unspecified'
p176
sg8
S'n02802426'
p177
sg10
(lp178
I369
aI231
aI400
aI262
asg12
I0
sasS'n02802426_12074'
p179
(lp180
(dp181
g5
I0
sg6
S'Unspecified'
p182
sg8
S'n02802426'
p183
sg10
(lp184
I235
aI156
aI271
aI193
asg12
I0
sasS'n02802426_5377'
p185
(lp186
(dp187
g5
I0
sg6
S'Unspecified'
p188
sg8
S'n02802426'
p189
sg10
(lp190
I239
aI146
aI322
aI232
asg12
I0
sasS'n02802426_4993'
p191
(lp192
(dp193
g5
I0
sg6
S'Unspecified'
p194
sg8
S'n02802426'
p195
sg10
(lp196
I101
aI151
aI171
aI221
asg12
I0
sasS'n02802426_2742'
p197
(lp198
(dp199
g5
I0
sg6
S'Unspecified'
p200
sg8
S'n02802426'
p201
sg10
(lp202
I42
aI98
aI123
aI173
asg12
I0
sasS'n02802426_2218'
p203
(lp204
(dp205
g5
I0
sg6
S'Unspecified'
p206
sg8
S'n02802426'
p207
sg10
(lp208
I0
aI0
aI289
aI289
asg12
I0
sasS'n02802426_8372'
p209
(lp210
(dp211
g5
I0
sg6
S'Unspecified'
p212
sg8
S'n02802426'
p213
sg10
(lp214
I47
aI244
aI98
aI292
asg12
I0
sasS'n02802426_7181'
p215
(lp216
(dp217
g5
I0
sg6
S'Unspecified'
p218
sg8
S'n02802426'
p219
sg10
(lp220
I155
aI109
aI184
aI137
asg12
I0
sasS'n02802426_1839'
p221
(lp222
(dp223
g5
I0
sg6
S'Unspecified'
p224
sg8
S'n02802426'
p225
sg10
(lp226
I100
aI330
aI167
aI398
asg12
I0
sasS'n02802426_8086'
p227
(lp228
(dp229
g5
I0
sg6
S'Unspecified'
p230
sg8
S'n02802426'
p231
sg10
(lp232
I142
aI20
aI220
aI95
asg12
I0
sasS'n02802426_3884'
p233
(lp234
(dp235
g5
I0
sg6
S'Unspecified'
p236
sg8
S'n02802426'
p237
sg10
(lp238
I58
aI13
aI113
aI68
asg12
I0
sasS'n02802426_11357'
p239
(lp240
(dp241
g5
I0
sg6
S'Unspecified'
p242
sg8
S'n02802426'
p243
sg10
(lp244
I328
aI159
aI353
aI187
asg12
I0
sasS'n02802426_12883'
p245
(lp246
(dp247
g5
I0
sg6
S'Unspecified'
p248
sg8
S'n02802426'
p249
sg10
(lp250
I194
aI312
aI334
aI435
asg12
I0
sasS'n02802426_9023'
p251
(lp252
(dp253
g5
I0
sg6
S'Unspecified'
p254
sg8
S'n02802426'
p255
sg10
(lp256
I180
aI59
aI495
aI365
asg12
I0
sasS'n02802426_952'
p257
(lp258
(dp259
g5
I0
sg6
S'Unspecified'
p260
sg8
S'n02802426'
p261
sg10
(lp262
I245
aI371
aI316
aI448
asg12
I0
sasS'n02802426_5284'
p263
(lp264
(dp265
g5
I0
sg6
S'Unspecified'
p266
sg8
S'n02802426'
p267
sg10
(lp268
I122
aI10
aI174
aI61
asg12
I0
sasS'n02802426_1601'
p269
(lp270
(dp271
g5
I0
sg6
S'Unspecified'
p272
sg8
S'n02802426'
p273
sg10
(lp274
I110
aI174
aI167
aI234
asg12
I0
sasS'n02802426_797'
p275
(lp276
(dp277
g5
I0
sg6
S'Unspecified'
p278
sg8
S'n02802426'
p279
sg10
(lp280
I131
aI225
aI187
aI283
asg12
I0
sasS'n02802426_10028'
p281
(lp282
(dp283
g5
I0
sg6
S'Unspecified'
p284
sg8
S'n02802426'
p285
sg10
(lp286
I283
aI103
aI316
aI137
asg12
I0
sasS'n02802426_3257'
p287
(lp288
(dp289
g5
I0
sg6
S'Unspecified'
p290
sg8
S'n02802426'
p291
sg10
(lp292
I26
aI207
aI82
aI263
asg12
I0
sasS'n02802426_9927'
p293
(lp294
(dp295
g5
I0
sg6
S'Unspecified'
p296
sg8
S'n02802426'
p297
sg10
(lp298
I71
aI108
aI140
aI180
asg12
I0
sasS'n02802426_11666'
p299
(lp300
(dp301
g5
I0
sg6
S'Unspecified'
p302
sg8
S'n02802426'
p303
sg10
(lp304
I270
aI89
aI310
aI130
asg12
I0
sasS'n02802426_6164'
p305
(lp306
(dp307
g5
I0
sg6
S'Unspecified'
p308
sg8
S'n02802426'
p309
sg10
(lp310
I75
aI171
aI118
aI216
asg12
I0
sasS'n02802426_4475'
p311
(lp312
(dp313
g5
I0
sg6
S'Unspecified'
p314
sg8
S'n02802426'
p315
sg10
(lp316
I105
aI239
aI160
aI297
asg12
I0
sasS'n02802426_6996'
p317
(lp318
(dp319
g5
I0
sg6
S'Unspecified'
p320
sg8
S'n02802426'
p321
sg10
(lp322
I107
aI300
aI179
aI370
asg12
I0
sasS'n02802426_10707'
p323
(lp324
(dp325
g5
I0
sg6
S'Unspecified'
p326
sg8
S'n02802426'
p327
sg10
(lp328
I308
aI277
aI341
aI310
asg12
I0
sasS'n02802426_13277'
p329
(lp330
(dp331
g5
I0
sg6
S'Unspecified'
p332
sg8
S'n02802426'
p333
sg10
(lp334
I224
aI312
aI299
aI388
asg12
I0
sasS'n02802426_3186'
p335
(lp336
(dp337
g5
I0
sg6
S'Unspecified'
p338
sg8
S'n02802426'
p339
sg10
(lp340
I0
aI0
aI448
aI452
asg12
I0
sasS'n02802426_9605'
p341
(lp342
(dp343
g5
I0
sg6
S'Unspecified'
p344
sg8
S'n02802426'
p345
sg10
(lp346
I312
aI426
aI496
aI602
asg12
I0
sasS'n02802426_8263'
p347
(lp348
(dp349
g5
I0
sg6
S'Unspecified'
p350
sg8
S'n02802426'
p351
sg10
(lp352
I92
aI204
aI156
aI266
asg12
I0
sasS'n02802426_5952'
p353
(lp354
(dp355
g5
I0
sg6
S'Unspecified'
p356
sg8
S'n02802426'
p357
sg10
(lp358
I33
aI41
aI152
aI162
asg12
I0
sasS'n02802426_11469'
p359
(lp360
(dp361
g5
I0
sg6
S'Unspecified'
p362
sg8
S'n02802426'
p363
sg10
(lp364
I189
aI11
aI241
aI66
asg12
I0
sasS'n02802426_11992'
p365
(lp366
(dp367
g5
I0
sg6
S'Unspecified'
p368
sg8
S'n02802426'
p369
sg10
(lp370
I95
aI199
aI142
aI256
asg12
I0
sasS'n02802426_1197'
p371
(lp372
(dp373
g5
I0
sg6
S'Unspecified'
p374
sg8
S'n02802426'
p375
sg10
(lp376
I131
aI109
aI205
aI187
asg12
I0
sasS'n02802426_276'
p377
(lp378
(dp379
g5
I0
sg6
S'Unspecified'
p380
sg8
S'n02802426'
p381
sg10
(lp382
I0
aI221
aI48
aI288
asg12
I0
sasS'n02802426_7403'
p383
(lp384
(dp385
g5
I0
sg6
S'Unspecified'
p386
sg8
S'n02802426'
p387
sg10
(lp388
I169
aI20
aI217
aI70
asg12
I0
sasS'n02802426_11286'
p389
(lp390
(dp391
g5
I0
sg6
S'Unspecified'
p392
sg8
S'n02802426'
p393
sg10
(lp394
I295
aI164
aI331
aI201
asg12
I0
sasS'n02802426_3096'
p395
(lp396
(dp397
g5
I0
sg6
S'Unspecified'
p398
sg8
S'n02802426'
p399
sg10
(lp400
I251
aI162
aI286
aI197
asg12
I0
sasS'n02802426_12899'
p401
(lp402
(dp403
g5
I0
sg6
S'Unspecified'
p404
sg8
S'n02802426'
p405
sg10
(lp406
I357
aI240
aI465
aI370
asg12
I0
sasS'n02802426_10282'
p407
(lp408
(dp409
g5
I0
sg6
S'Unspecified'
p410
sg8
S'n02802426'
p411
sg10
(lp412
I102
aI209
aI176
aI280
asg12
I0
sasS'n02802426_2388'
p413
(lp414
(dp415
g5
I0
sg6
S'Unspecified'
p416
sg8
S'n02802426'
p417
sg10
(lp418
I3
aI9
aI592
aI593
asg12
I0
sasS'n02802426_9952'
p419
(lp420
(dp421
g5
I0
sg6
S'Unspecified'
p422
sg8
S'n02802426'
p423
sg10
(lp424
I262
aI155
aI281
aI177
asg12
I0
sasS'n02802426_4187'
p425
(lp426
(dp427
g5
I0
sg6
S'Unspecified'
p428
sg8
S'n02802426'
p429
sg10
(lp430
I146
aI57
aI196
aI106
asg12
I0
sasS'n02802426_12157'
p431
(lp432
(dp433
g5
I0
sg6
S'Unspecified'
p434
sg8
S'n02802426'
p435
sg10
(lp436
I220
aI176
aI246
aI206
asg12
I0
sasS'n02802426_7003'
p437
(lp438
(dp439
g5
I0
sg6
S'Unspecified'
p440
sg8
S'n02802426'
p441
sg10
(lp442
I122
aI280
aI206
aI362
asg12
I0
sasS'n02802426_8948'
p443
(lp444
(dp445
g5
I0
sg6
S'Unspecified'
p446
sg8
S'n02802426'
p447
sg10
(lp448
I301
aI101
aI319
aI122
asg12
I0
sa(dp449
g5
I0
sg6
S'Unspecified'
p450
sg8
S'n02802426'
p451
sg10
(lp452
I47
aI65
aI97
aI116
asg12
I0
sasS'n02802426_8826'
p453
(lp454
(dp455
g5
I0
sg6
S'Unspecified'
p456
sg8
S'n02802426'
p457
sg10
(lp458
I140
aI280
aI230
aI371
asg12
I0
sasS'n02802426_11830'
p459
(lp460
(dp461
g5
I0
sg6
S'Unspecified'
p462
sg8
S'n02802426'
p463
sg10
(lp464
I231
aI175
aI257
aI205
asg12
I0
sasS'n02802426_2761'
p465
(lp466
(dp467
g5
I0
sg6
S'Unspecified'
p468
sg8
S'n02802426'
p469
sg10
(lp470
I202
aI70
aI240
aI101
asg12
I0
sasS'n02802426_4733'
p471
(lp472
(dp473
g5
I0
sg6
S'Unspecified'
p474
sg8
S'n02802426'
p475
sg10
(lp476
I39
aI3
aI60
aI20
asg12
I0
sasS'n02802426_10565'
p477
(lp478
(dp479
g5
I0
sg6
S'Unspecified'
p480
sg8
S'n02802426'
p481
sg10
(lp482
I88
aI10
aI425
aI342
asg12
I0
sasS'n02802426_12161'
p483
(lp484
(dp485
g5
I0
sg6
S'Unspecified'
p486
sg8
S'n02802426'
p487
sg10
(lp488
I151
aI35
aI186
aI75
asg12
I0
sasS'n02802426_12782'
p489
(lp490
(dp491
g5
I0
sg6
S'Unspecified'
p492
sg8
S'n02802426'
p493
sg10
(lp494
I263
aI25
aI320
aI80
asg12
I0
sasS'n02802426_10366'
p495
(lp496
(dp497
g5
I0
sg6
S'Unspecified'
p498
sg8
S'n02802426'
p499
sg10
(lp500
I117
aI0
aI179
aI38
asg12
I0
sasS'n02802426_13309'
p501
(lp502
(dp503
g5
I0
sg6
S'Unspecified'
p504
sg8
S'n02802426'
p505
sg10
(lp506
I43
aI205
aI103
aI265
asg12
I0
sasS'n02802426_223'
p507
(lp508
(dp509
g5
I0
sg6
S'Unspecified'
p510
sg8
S'n02802426'
p511
sg10
(lp512
I175
aI43
aI207
aI76
asg12
I0
sasS'n02802426_1187'
p513
(lp514
(dp515
g5
I0
sg6
S'Unspecified'
p516
sg8
S'n02802426'
p517
sg10
(lp518
I282
aI98
aI393
aI213
asg12
I0
sasS'n02802426_10699'
p519
(lp520
(dp521
g5
I0
sg6
S'Unspecified'
p522
sg8
S'n02802426'
p523
sg10
(lp524
I105
aI101
aI162
aI150
asg12
I0
sasS'n02802426_10697'
p525
(lp526
(dp527
g5
I0
sg6
S'Unspecified'
p528
sg8
S'n02802426'
p529
sg10
(lp530
I295
aI131
aI474
aI277
asg12
I0
sasS'n02802426_10692'
p531
(lp532
(dp533
g5
I0
sg6
S'Unspecified'
p534
sg8
S'n02802426'
p535
sg10
(lp536
I47
aI276
aI115
aI345
asg12
I0
sasS'n02802426_6738'
p537
(lp538
(dp539
g5
I0
sg6
S'Unspecified'
p540
sg8
S'n02802426'
p541
sg10
(lp542
I135
aI40
aI193
aI98
asg12
I0
sasS'n02802426_4197'
p543
(lp544
(dp545
g5
I0
sg6
S'Unspecified'
p546
sg8
S'n02802426'
p547
sg10
(lp548
I142
aI16
aI186
aI67
asg12
I0
sasS'n02802426_11771'
p549
(lp550
(dp551
g5
I0
sg6
S'Unspecified'
p552
sg8
S'n02802426'
p553
sg10
(lp554
I96
aI72
aI145
aI122
asg12
I0
sasS'n02802426_5189'
p555
(lp556
(dp557
g5
I0
sg6
S'Unspecified'
p558
sg8
S'n02802426'
p559
sg10
(lp560
I57
aI315
aI100
aI357
asg12
I0
sasS'n02802426_12811'
p561
(lp562
(dp563
g5
I0
sg6
S'Unspecified'
p564
sg8
S'n02802426'
p565
sg10
(lp566
I70
aI0
aI548
aI471
asg12
I0
sasS'n02802426_12338'
p567
(lp568
(dp569
g5
I0
sg6
S'Unspecified'
p570
sg8
S'n02802426'
p571
sg10
(lp572
I114
aI173
aI181
aI254
asg12
I0
sasS'n02802426_9348'
p573
(lp574
(dp575
g5
I0
sg6
S'Unspecified'
p576
sg8
S'n02802426'
p577
sg10
(lp578
I179
aI369
aI251
aI441
asg12
I0
sasS'n02802426_4353'
p579
(lp580
(dp581
g5
I0
sg6
S'Unspecified'
p582
sg8
S'n02802426'
p583
sg10
(lp584
I30
aI365
aI80
aI413
asg12
I0
sasS'n02802426_131'
p585
(lp586
(dp587
g5
I0
sg6
S'Unspecified'
p588
sg8
S'n02802426'
p589
sg10
(lp590
I137
aI51
aI179
aI92
asg12
I0
sasS'n02802426_12025'
p591
(lp592
(dp593
g5
I0
sg6
S'Unspecified'
p594
sg8
S'n02802426'
p595
sg10
(lp596
I138
aI75
aI180
aI116
asg12
I0
sasS'n02802426_1459'
p597
(lp598
(dp599
g5
I0
sg6
S'Unspecified'
p600
sg8
S'n02802426'
p601
sg10
(lp602
I134
aI47
aI167
aI79
asg12
I0
sasS'n02802426_13007'
p603
(lp604
(dp605
g5
I0
sg6
S'Unspecified'
p606
sg8
S'n02802426'
p607
sg10
(lp608
I83
aI292
aI192
aI398
asg12
I0
sasS'n02802426_4111'
p609
(lp610
(dp611
g5
I0
sg6
S'Unspecified'
p612
sg8
S'n02802426'
p613
sg10
(lp614
I12
aI166
aI52
aI204
asg12
I0
sasS'n02802426_9108'
p615
(lp616
(dp617
g5
I0
sg6
S'Unspecified'
p618
sg8
S'n02802426'
p619
sg10
(lp620
I69
aI213
aI139
aI279
asg12
I0
sasS'n02802426_11733'
p621
(lp622
(dp623
g5
I0
sg6
S'Unspecified'
p624
sg8
S'n02802426'
p625
sg10
(lp626
I280
aI67
aI315
aI102
asg12
I0
sasS'n02802426_9242'
p627
(lp628
(dp629
g5
I0
sg6
S'Unspecified'
p630
sg8
S'n02802426'
p631
sg10
(lp632
I321
aI190
aI363
aI233
asg12
I0
sasS'n02802426_3919'
p633
(lp634
(dp635
g5
I0
sg6
S'Unspecified'
p636
sg8
S'n02802426'
p637
sg10
(lp638
I229
aI113
aI492
aI332
asg12
I0
sasS'n02802426_6958'
p639
(lp640
(dp641
g5
I0
sg6
S'Unspecified'
p642
sg8
S'n02802426'
p643
sg10
(lp644
I190
aI236
aI261
aI303
asg12
I0
sasS'n02802426_6256'
p645
(lp646
(dp647
g5
I0
sg6
S'Unspecified'
p648
sg8
S'n02802426'
p649
sg10
(lp650
I62
aI18
aI121
aI82
asg12
I0
sasS'n02802426_2034'
p651
(lp652
(dp653
g5
I0
sg6
S'Unspecified'
p654
sg8
S'n02802426'
p655
sg10
(lp656
I122
aI45
aI157
aI78
asg12
I0
sasS'n02802426_12539'
p657
(lp658
(dp659
g5
I0
sg6
S'Unspecified'
p660
sg8
S'n02802426'
p661
sg10
(lp662
I209
aI151
aI257
aI196
asg12
I0
sasS'n02802426_4201'
p663
(lp664
(dp665
g5
I0
sg6
S'Unspecified'
p666
sg8
S'n02802426'
p667
sg10
(lp668
I177
aI0
aI208
aI28
asg12
I0
sasS'n02802426_2783'
p669
(lp670
(dp671
g5
I0
sg6
S'Unspecified'
p672
sg8
S'n02802426'
p673
sg10
(lp674
I67
aI26
aI122
aI83
asg12
I0
sasS'n02802426_4711'
p675
(lp676
(dp677
g5
I0
sg6
S'Unspecified'
p678
sg8
S'n02802426'
p679
sg10
(lp680
I125
aI202
aI224
aI305
asg12
I0
sasS'n02802426_2262'
p681
(lp682
(dp683
g5
I0
sg6
S'Unspecified'
p684
sg8
S'n02802426'
p685
sg10
(lp686
I237
aI38
aI265
aI70
asg12
I0
sasS'n02802426_8963'
p687
(lp688
(dp689
g5
I0
sg6
S'Unspecified'
p690
sg8
S'n02802426'
p691
sg10
(lp692
I280
aI96
aI335
aI146
asg12
I0
sasS'n02802426_8964'
p693
(lp694
(dp695
g5
I0
sg6
S'Unspecified'
p696
sg8
S'n02802426'
p697
sg10
(lp698
I179
aI224
aI215
aI260
asg12
I0
sasS'n02802426_1694'
p699
(lp700
(dp701
g5
I0
sg6
S'Unspecified'
p702
sg8
S'n02802426'
p703
sg10
(lp704
I111
aI336
aI182
aI406
asg12
I0
sasS'n02802426_10180'
p705
(lp706
(dp707
g5
I0
sg6
S'Unspecified'
p708
sg8
S'n02802426'
p709
sg10
(lp710
I277
aI8
aI330
aI63
asg12
I0
sasS'n02802426_3655'
p711
(lp712
(dp713
g5
I0
sg6
S'Unspecified'
p714
sg8
S'n02802426'
p715
sg10
(lp716
I91
aI226
aI263
aI401
asg12
I0
sasS'n02802426_2386'
p717
(lp718
(dp719
g5
I0
sg6
S'Unspecified'
p720
sg8
S'n02802426'
p721
sg10
(lp722
I85
aI219
aI113
aI245
asg12
I0
sasS'n02802426_3798'
p723
(lp724
(dp725
g5
I0
sg6
S'Unspecified'
p726
sg8
S'n02802426'
p727
sg10
(lp728
I30
aI70
aI85
aI122
asg12
I0
sasS'n02802426_12130'
p729
(lp730
(dp731
g5
I0
sg6
S'Unspecified'
p732
sg8
S'n02802426'
p733
sg10
(lp734
I143
aI265
aI187
aI311
asg12
I0
sasS'n02802426_13329'
p735
(lp736
(dp737
g5
I0
sg6
S'Unspecified'
p738
sg8
S'n02802426'
p739
sg10
(lp740
I202
aI260
aI306
aI365
asg12
I0
sasS'n02802426_530'
p741
(lp742
(dp743
g5
I0
sg6
S'Unspecified'
p744
sg8
S'n02802426'
p745
sg10
(lp746
I196
aI221
aI253
aI280
asg12
I0
sasS'n02802426_11704'
p747
(lp748
(dp749
g5
I0
sg6
S'Unspecified'
p750
sg8
S'n02802426'
p751
sg10
(lp752
I76
aI222
aI94
aI246
asg12
I0
sasS'n02802426_12139'
p753
(lp754
(dp755
g5
I0
sg6
S'Unspecified'
p756
sg8
S'n02802426'
p757
sg10
(lp758
I237
aI106
aI255
aI128
asg12
I0
sasS'n02802426_12440'
p759
(lp760
(dp761
g5
I0
sg6
S'Unspecified'
p762
sg8
S'n02802426'
p763
sg10
(lp764
I276
aI191
aI304
aI220
asg12
I0
sasS'n02802426_4305'
p765
(lp766
(dp767
g5
I0
sg6
S'Unspecified'
p768
sg8
S'n02802426'
p769
sg10
(lp770
I159
aI179
aI224
aI243
asg12
I0
sasS'n02802426_7934'
p771
(lp772
(dp773
g5
I0
sg6
S'Unspecified'
p774
sg8
S'n02802426'
p775
sg10
(lp776
I98
aI152
aI131
aI188
asg12
I0
sasS'n02802426_3291'
p777
(lp778
(dp779
g5
I0
sg6
S'Unspecified'
p780
sg8
S'n02802426'
p781
sg10
(lp782
I155
aI129
aI188
aI161
asg12
I0
sasS'n02802426_12597'
p783
(lp784
(dp785
g5
I0
sg6
S'Unspecified'
p786
sg8
S'n02802426'
p787
sg10
(lp788
I211
aI302
aI248
aI339
asg12
I0
sasS'n02802426_10775'
p789
(lp790
(dp791
g5
I0
sg6
S'Unspecified'
p792
sg8
S'n02802426'
p793
sg10
(lp794
I216
aI121
aI264
aI172
asg12
I0
sasS'n02802426_1330'
p795
(lp796
(dp797
g5
I0
sg6
S'Unspecified'
p798
sg8
S'n02802426'
p799
sg10
(lp800
I171
aI73
aI215
aI122
asg12
I0
sa(dp801
g5
I0
sg6
S'Unspecified'
p802
sg8
S'n02802426'
p803
sg10
(lp804
I174
aI76
aI212
aI115
asg12
I0
sasS'n02802426_9593'
p805
(lp806
(dp807
g5
I0
sg6
S'Unspecified'
p808
sg8
S'n02802426'
p809
sg10
(lp810
I201
aI231
aI258
aI289
asg12
I0
sasS'n02802426_9962'
p811
(lp812
(dp813
g5
I0
sg6
S'Unspecified'
p814
sg8
S'n02802426'
p815
sg10
(lp816
I341
aI263
aI375
aI299
asg12
I0
sa(dp817
g5
I0
sg6
S'Unspecified'
p818
sg8
S'n02802426'
p819
sg10
(lp820
I92
aI10
aI162
aI80
asg12
I0
sasS'n02802426_5759'
p821
(lp822
(dp823
g5
I0
sg6
S'Unspecified'
p824
sg8
S'n02802426'
p825
sg10
(lp826
I88
aI101
aI116
aI130
asg12
I0
sasS'n02802426_4230'
p827
(lp828
(dp829
g5
I0
sg6
S'Unspecified'
p830
sg8
S'n02802426'
p831
sg10
(lp832
I228
aI52
aI278
aI100
asg12
I0
sasS'n02802426_3704'
p833
(lp834
(dp835
g5
I0
sg6
S'Unspecified'
p836
sg8
S'n02802426'
p837
sg10
(lp838
I8
aI6
aI249
aI249
asg12
I0
sasS'n02802426_10239'
p839
(lp840
(dp841
g5
I0
sg6
S'Unspecified'
p842
sg8
S'n02802426'
p843
sg10
(lp844
I142
aI56
aI177
aI92
asg12
I0
sasS'n02802426_7132'
p845
(lp846
(dp847
g5
I0
sg6
S'Unspecified'
p848
sg8
S'n02802426'
p849
sg10
(lp850
I131
aI222
aI199
aI291
asg12
I0
sasS'n02802426_10747'
p851
(lp852
(dp853
g5
I0
sg6
S'Unspecified'
p854
sg8
S'n02802426'
p855
sg10
(lp856
I229
aI235
aI299
aI300
asg12
I0
sa(dp857
g5
I0
sg6
S'Unspecified'
p858
sg8
S'n02802426'
p859
sg10
(lp860
I230
aI235
aI296
aI300
asg12
I0
sasS'n02802426_2411'
p861
(lp862
(dp863
g5
I0
sg6
S'Unspecified'
p864
sg8
S'n02802426'
p865
sg10
(lp866
I175
aI191
aI231
aI248
asg12
I0
sasS'n02802426_13336'
p867
(lp868
(dp869
g5
I0
sg6
S'Unspecified'
p870
sg8
S'n02802426'
p871
sg10
(lp872
I182
aI132
aI291
aI245
asg12
I0
sasS'n02802426_8222'
p873
(lp874
(dp875
g5
I0
sg6
S'Unspecified'
p876
sg8
S'n02802426'
p877
sg10
(lp878
I110
aI193
aI169
aI254
asg12
I0
sasS'n02802426_117'
p879
(lp880
(dp881
g5
I0
sg6
S'Unspecified'
p882
sg8
S'n02802426'
p883
sg10
(lp884
I150
aI282
aI254
aI387
asg12
I0
sasS'n02802426_12758'
p885
(lp886
(dp887
g5
I0
sg6
S'Unspecified'
p888
sg8
S'n02802426'
p889
sg10
(lp890
I114
aI137
aI162
aI184
asg12
I0
sasS'n02802426_1848'
p891
(lp892
(dp893
g5
I0
sg6
S'Unspecified'
p894
sg8
S'n02802426'
p895
sg10
(lp896
I127
aI262
aI190
aI327
asg12
I0
sasS'n02802426_3429'
p897
(lp898
(dp899
g5
I0
sg6
S'Unspecified'
p900
sg8
S'n02802426'
p901
sg10
(lp902
I365
aI74
aI402
aI115
asg12
I0
sasS'n02802426_6783'
p903
(lp904
(dp905
g5
I0
sg6
S'Unspecified'
p906
sg8
S'n02802426'
p907
sg10
(lp908
I145
aI25
aI217
aI93
asg12
I0
sasS'n02802426_9557'
p909
(lp910
(dp911
g5
I0
sg6
S'Unspecified'
p912
sg8
S'n02802426'
p913
sg10
(lp914
I250
aI91
aI277
aI114
asg12
I0
sasS'n02802426_7900'
p915
(lp916
(dp917
g5
I0
sg6
S'Unspecified'
p918
sg8
S'n02802426'
p919
sg10
(lp920
I71
aI227
aI105
aI259
asg12
I0
sasS'n02802426_1557'
p921
(lp922
(dp923
g5
I0
sg6
S'Unspecified'
p924
sg8
S'n02802426'
p925
sg10
(lp926
I82
aI0
aI188
aI105
asg12
I0
sa(dp927
g5
I0
sg6
S'Unspecified'
p928
sg8
S'n02802426'
p929
sg10
(lp930
I82
aI0
aI188
aI107
asg12
I0
sasS'n02802426_12897'
p931
(lp932
(dp933
g5
I0
sg6
S'Unspecified'
p934
sg8
S'n02802426'
p935
sg10
(lp936
I30
aI53
aI103
aI126
asg12
I0
sasS'n02802426_2194'
p937
(lp938
(dp939
g5
I0
sg6
S'Unspecified'
p940
sg8
S'n02802426'
p941
sg10
(lp942
I139
aI12
aI191
aI65
asg12
I0
sasS'n02802426_8985'
p943
(lp944
(dp945
g5
I0
sg6
S'Unspecified'
p946
sg8
S'n02802426'
p947
sg10
(lp948
I93
aI244
aI172
aI323
asg12
I0
sasS'n02802426_686'
p949
(lp950
(dp951
g5
I0
sg6
S'Unspecified'
p952
sg8
S'n02802426'
p953
sg10
(lp954
I219
aI161
aI269
aI208
asg12
I0
sasS'n02802426_12854'
p955
(lp956
(dp957
g5
I0
sg6
S'Unspecified'
p958
sg8
S'n02802426'
p959
sg10
(lp960
I179
aI171
aI235
aI231
asg12
I0
sasS'n02802426_681'
p961
(lp962
(dp963
g5
I0
sg6
S'Unspecified'
p964
sg8
S'n02802426'
p965
sg10
(lp966
I161
aI44
aI184
aI66
asg12
I0
sasS'n02802426_1154'
p967
(lp968
(dp969
g5
I0
sg6
S'Unspecified'
p970
sg8
S'n02802426'
p971
sg10
(lp972
I101
aI0
aI155
aI51
asg12
I0
sasS'n02802426_580'
p973
(lp974
(dp975
g5
I0
sg6
S'Unspecified'
p976
sg8
S'n02802426'
p977
sg10
(lp978
I193
aI172
aI258
aI237
asg12
I0
sasS'n02802426_13181'
p979
(lp980
(dp981
g5
I0
sg6
S'Unspecified'
p982
sg8
S'n02802426'
p983
sg10
(lp984
I191
aI270
aI240
aI321
asg12
I0
sasS'n02802426_3262'
p985
(lp986
(dp987
g5
I0
sg6
S'Unspecified'
p988
sg8
S'n02802426'
p989
sg10
(lp990
I261
aI177
aI292
aI204
asg12
I0
sasS'n02802426_9097'
p991
(lp992
(dp993
g5
I0
sg6
S'Unspecified'
p994
sg8
S'n02802426'
p995
sg10
(lp996
I49
aI168
aI86
aI202
asg12
I0
sasS'n02802426_1755'
p997
(lp998
(dp999
g5
I0
sg6
S'Unspecified'
p1000
sg8
S'n02802426'
p1001
sg10
(lp1002
I314
aI19
aI356
aI57
asg12
I0
sasS'n02802426_4670'
p1003
(lp1004
(dp1005
g5
I0
sg6
S'Unspecified'
p1006
sg8
S'n02802426'
p1007
sg10
(lp1008
I91
aI115
aI117
aI141
asg12
I0
sasS'n02802426_3739'
p1009
(lp1010
(dp1011
g5
I0
sg6
S'Unspecified'
p1012
sg8
S'n02802426'
p1013
sg10
(lp1014
I204
aI296
aI264
aI355
asg12
I0
sasS'n02802426_9915'
p1015
(lp1016
(dp1017
g5
I0
sg6
S'Unspecified'
p1018
sg8
S'n02802426'
p1019
sg10
(lp1020
I148
aI18
aI192
aI63
asg12
I0
sasS'n02802426_10434'
p1021
(lp1022
(dp1023
g5
I0
sg6
S'Unspecified'
p1024
sg8
S'n02802426'
p1025
sg10
(lp1026
I130
aI88
aI167
aI125
asg12
I0
sasS'n02802426_13033'
p1027
(lp1028
(dp1029
g5
I0
sg6
S'Unspecified'
p1030
sg8
S'n02802426'
p1031
sg10
(lp1032
I89
aI5
aI119
aI39
asg12
I0
sasS'n02802426_11090'
p1033
(lp1034
(dp1035
g5
I0
sg6
S'Unspecified'
p1036
sg8
S'n02802426'
p1037
sg10
(lp1038
I58
aI223
aI269
aI425
asg12
I0
sasS'n02802426_1527'
p1039
(lp1040
(dp1041
g5
I0
sg6
S'Unspecified'
p1042
sg8
S'n02802426'
p1043
sg10
(lp1044
I217
aI213
aI268
aI262
asg12
I0
sasS'n02802426_4147'
p1045
(lp1046
(dp1047
g5
I0
sg6
S'Unspecified'
p1048
sg8
S'n02802426'
p1049
sg10
(lp1050
I194
aI312
aI326
aI457
asg12
I0
sasS'n02802426_3357'
p1051
(lp1052
(dp1053
g5
I0
sg6
S'Unspecified'
p1054
sg8
S'n02802426'
p1055
sg10
(lp1056
I138
aI209
aI186
aI250
asg12
I0
sasS'n02802426_753'
p1057
(lp1058
(dp1059
g5
I0
sg6
S'Unspecified'
p1060
sg8
S'n02802426'
p1061
sg10
(lp1062
I41
aI279
aI88
aI325
asg12
I0
sasS'n02802426_12463'
p1063
(lp1064
(dp1065
g5
I0
sg6
S'Unspecified'
p1066
sg8
S'n02802426'
p1067
sg10
(lp1068
I257
aI244
aI307
aI293
asg12
I0
sasS'n02802426_10243'
p1069
(lp1070
(dp1071
g5
I0
sg6
S'Unspecified'
p1072
sg8
S'n02802426'
p1073
sg10
(lp1074
I62
aI161
aI111
aI209
asg12
I0
sas.